; Function Attrs: nounwind uwtable
define dso_local i64 @regroleout(ptr noundef readonly captures(none) %0) local_unnamed_addr #0 {
  %2 = getelementptr inbounds nuw i8, ptr %0, i64 32
  %3 = load i64, ptr %2, align 8
  %4 = trunc i64 %3 to i32
  %5 = icmp eq i32 %4, 0
  br i1 %5, label %6, label %8

6:                                                ; preds = %1
  %7 = tail call ptr @pstrdup(ptr noundef nonnull @.str.4) #9
  br label %16

8:                                                ; preds = %1
  %9 = tail call ptr @GetUserNameFromId(i32 noundef %4, i1 noundef zeroext true) #9
  %.not = icmp eq ptr %9, null
  br i1 %.not, label %13, label %10

10:                                               ; preds = %8
  %11 = tail call ptr @quote_identifier(ptr noundef nonnull %9) #9
  %12 = tail call ptr @pstrdup(ptr noundef %11) #9
  br label %16

13:                                               ; preds = %8
  %14 = tail call ptr @palloc(i64 noundef 64) #9
  %15 = tail call i32 (ptr, i64, ptr, ...) @pg_snprintf(ptr noundef %14, i64 noundef 64, ptr noundef nonnull @.str.5, i32 noundef %4) #9
  br label %16

16:                                               ; preds = %10, %13, %6
  %.09.in = phi ptr [ %7, %6 ], [ %12, %10 ], [ %14, %13 ]
  %.09 = ptrtoint ptr %.09.in to i64
  ret i64 %.09
}